-----BEGIN CERTIFICATE-----
MIIEADCCAuigAwIBAgIFALYFz+4wDQYJKoZIhvcNAQELBQAwgZkxHTAbBgNVBAMM
FDg1MWVudGVydGFpbm1lbnQuY29tMRAwDgYDVQQIDAdPbnRhcmlvMRowGAYDVQQK
DBE4NTEgRW50ZXJ0YWlubWVudDELMAkGA1UEBhMCQ0ExKTAnBgkqhkiG9w0BCQEW
GmFsZXhhbmRlcm1hZ3VzNkBpY2xvdWQuY29tMRIwEAYDVQQHDAlTdCBUaG9tYXMw
HhcNMTUwOTE4MTkzMzQ1WhcNMTYwOTE3MTkzMzQ1WjCBmTEdMBsGA1UEAwwUODUx
ZW50ZXJ0YWlubWVudC5jb20xEDAOBgNVBAgMB09udGFyaW8xGjAYBgNVBAoMETg1
MSBFbnRlcnRhaW5tZW50MQswCQYDVQQGEwJDQTEpMCcGCSqGSIb3DQEJARYaYWxl
eGFuZGVybWFndXM2QGljbG91ZC5jb20xEjAQBgNVBAcMCVN0IFRob21hczCCASIw
DQYJKoZIhvcNAQEBBQADggEPADCCAQoCggEBAM9dA7UZnUCU2s8uxNOCyGIRgKnR
LJcEw72/mHsCrP0LmexXnJLrG+cs2/1ZSgXz2VDMv1GOPz58mra/ZjoYKkWnAanq
IioF5+iBYqK50msBgn247VAHAXEPLA1YDuw+OC9v8jgNOFFmE943XJ+LE0tzRtI/
8i5ZDqnj8SZc+Mkgnt5JUblOVsbco1QJ0GP+9CxIlIvo60yl8KIk72kkXc8RWJc2
jq99996SePiunNrNj+5txJjuqvufUtVXTKVuKYsDNa/ZiqiFgrggzDuJE44xX99m
gsfIkgJsNZBOPlGURF9vfDK2p2CAyYsxAMaMDxwd6hFW4l3kOqTNdFz0onkCAwEA
AaNNMEswHQYDVR0OBBYEFLMXFciDid20zHk1cj/rNY75i7WFMB8GA1UdIwQYMBaA
FLMXFciDid20zHk1cj/rNY75i7WFMAkGA1UdEwQCMAAwDQYJKoZIhvcNAQELBQAD
ggEBAMZU71t4zqcUfCLdYQP4enQj7zemsj5RqFEswI/H70wtwgcH7fRofTlPR0eX
q62apgu+CAtKQMO3XXgBgSbkl19GzQ9Gmjfbcga4eZ6XqLCXI0QmvCPVVYeC1tM/
qdT2rjXwpSWfcFKvIU0cvgXVKW9pFU/rgccq2cOsxEZh1EiFTypJ8eRTZzeSCvEI
jITvefWMX6yJW64wazLpmb2y4tP5ksE0fyD+9NXl08TzL/28cwXceuGSnUTXxx4E
s9QHXah/kvQAduGbr4KXG/vomycOaajYJYnTusQGG1QttOx1Mu5bhPFGAyeSNVI5
E13YgVEN1St8s3GbgdzLdJJT3iI=
-----END CERTIFICATE-----
Decoded Certificate:
Certificate:
    Data:
        Version: 3 (0x2)
        Serial Number: 3053834222 (0xb605cfee)
    Signature Algorithm: sha256WithRSAEncryption
        Issuer: CN = 851entertainment.com, ST = Ontario, O = 851 Entertainment, C = CA, emailAddress = alexandermagus6@icloud.com, L = St Thomas
        Validity
            Not Before: Sep 18 19:33:45 2015 GMT
            Not After : Sep 17 19:33:45 2016 GMT
        Subject: CN = 851entertainment.com, ST = Ontario, O = 851 Entertainment, C = CA, emailAddress = alexandermagus6@icloud.com, L = St Thomas
        Subject Public Key Info:
            Public Key Algorithm: rsaEncryption
                Public-Key: (2048 bit)
                Modulus:
                    00:cf:5d:03:b5:19:9d:40:94:da:cf:2e:c4:d3:82:
                    c8:62:11:80:a9:d1:2c:97:04:c3:bd:bf:98:7b:02:
                    ac:fd:0b:99:ec:57:9c:92:eb:1b:e7:2c:db:fd:59:
                    4a:05:f3:d9:50:cc:bf:51:8e:3f:3e:7c:9a:b6:bf:
                    66:3a:18:2a:45:a7:01:a9:ea:22:2a:05:e7:e8:81:
                    62:a2:b9:d2:6b:01:82:7d:b8:ed:50:07:01:71:0f:
                    2c:0d:58:0e:ec:3e:38:2f:6f:f2:38:0d:38:51:66:
                    13:de:37:5c:9f:8b:13:4b:73:46:d2:3f:f2:2e:59:
                    0e:a9:e3:f1:26:5c:f8:c9:20:9e:de:49:51:b9:4e:
                    56:c6:dc:a3:54:09:d0:63:fe:f4:2c:48:94:8b:e8:
                    eb:4c:a5:f0:a2:24:ef:69:24:5d:cf:11:58:97:36:
                    8e:af:7d:f7:de:92:78:f8:ae:9c:da:cd:8f:ee:6d:
                    c4:98:ee:aa:fb:9f:52:d5:57:4c:a5:6e:29:8b:03:
                    35:af:d9:8a:a8:85:82:b8:20:cc:3b:89:13:8e:31:
                    5f:df:66:82:c7:c8:92:02:6c:35:90:4e:3e:51:94:
                    44:5f:6f:7c:32:b6:a7:60:80:c9:8b:31:00:c6:8c:
                    0f:1c:1d:ea:11:56:e2:5d:e4:3a:a4:cd:74:5c:f4:
                    a2:79
                Exponent: 65537 (0x10001)
        X509v3 extensions:
            X509v3 Subject Key Identifier: 
                B3:17:15:C8:83:89:DD:B4:CC:79:35:72:3F:EB:35:8E:F9:8B:B5:85
            X509v3 Authority Key Identifier: 
                keyid:B3:17:15:C8:83:89:DD:B4:CC:79:35:72:3F:EB:35:8E:F9:8B:B5:85

            X509v3 Basic Constraints: 
                CA:FALSE
    Signature Algorithm: sha256WithRSAEncryption
         c6:54:ef:5b:78:ce:a7:14:7c:22:dd:61:03:f8:7a:74:23:ef:
         37:a6:b2:3e:51:a8:51:2c:c0:8f:c7:ef:4c:2d:c2:07:07:ed:
         f4:68:7d:39:4f:47:47:97:ab:ad:9a:a6:0b:be:08:0b:4a:40:
         c3:b7:5d:78:01:81:26:e4:97:5f:46:cd:0f:46:9a:37:db:72:
         06:b8:79:9e:97:a8:b0:97:23:44:26:bc:23:d5:55:87:82:d6:
         d3:3f:a9:d4:f6:ae:35:f0:a5:25:9f:70:52:af:21:4d:1c:be:
         05:d5:29:6f:69:15:4f:eb:81:c7:2a:d9:c3:ac:c4:46:61:d4:
         48:85:4f:2a:49:f1:e4:53:67:37:92:0a:f1:08:8c:84:ef:79:
         f5:8c:5f:ac:89:5b:ae:30:6b:32:e9:99:bd:b2:e2:d3:f9:92:
         c1:34:7f:20:fe:f4:d5:e5:d3:c4:f3:2f:fd:bc:73:05:dc:7a:
         e1:92:9d:44:d7:c7:1e:04:b3:d4:07:5d:a8:7f:92:f4:00:76:
         e1:9b:af:82:97:1b:fb:e8:9b:27:0e:69:a8:d8:25:89:d3:ba:
         c4:06:1b:54:2d:b4:ec:75:32:ee:5b:84:f1:46:03:27:92:35:
         52:39:13:5d:d8:81:51:0d:d5:2b:7c:b3:71:9b:81:dc:cb:74:
         92:53:de:22